; Function Attrs: mustprogress nounwind uwtable
define hidden noundef ptr @_ZNK12ciMethodData20parameters_type_dataEv(ptr nocapture noundef nonnull readonly align 8 dereferenceable(176) %0) local_unnamed_addr #1 align 2 {
  %2 = getelementptr inbounds i8, ptr %0, i64 44
  %3 = load i32, ptr %2, align 4
  %4 = getelementptr inbounds i8, ptr %0, i64 40
  %5 = load i32, ptr %4, align 8
  %.not = icmp eq i32 %3, %5
  br i1 %.not, label %21, label %6

6:                                                ; preds = %1
  %7 = tail call noundef ptr @_Z23resource_allocate_bytesmN17AllocFailStrategy13AllocFailEnumE(i64 noundef 32, i32 noundef 0) #12
  %8 = load i32, ptr %4, align 8
  %9 = getelementptr inbounds i8, ptr %0, i64 32
  %10 = load ptr, ptr %9, align 8
  %11 = sext i32 %8 to i64
  %12 = getelementptr inbounds i8, ptr %10, i64 %11
  %13 = getelementptr inbounds i8, ptr %7, i64 8
  store ptr %12, ptr %13, align 8
  store ptr getelementptr inbounds inrange(-16, 152) (i8, ptr @_ZTV18ParametersTypeData, i64 16), ptr %7, align 8
  %14 = getelementptr inbounds i8, ptr %7, i64 16
  %15 = getelementptr inbounds i8, ptr %12, i64 8
  %16 = load i64, ptr %15, align 8
  %17 = trunc i64 %16 to i32
  %18 = sdiv i32 %17, 2
  %19 = getelementptr inbounds i8, ptr %7, i64 24
  store i32 1, ptr %19, align 8
  %20 = getelementptr inbounds i8, ptr %7, i64 28
  store i32 %18, ptr %20, align 4
  store ptr %7, ptr %14, align 8
  store ptr getelementptr inbounds inrange(-16, 152) (i8, ptr @_ZTV20ciParametersTypeData, i64 16), ptr %7, align 8
  br label %21

21:                                               ; preds = %1, %6
  %22 = phi ptr [ %7, %6 ], [ null, %1 ]
  ret ptr %22
}